; Function Attrs: mustprogress nounwind uwtable
define dso_local void @_ZN5clang15FloatingLiteralC2ERKNS_10ASTContextERKN4llvm7APFloatEbNS_8QualTypeENS_14SourceLocationE(ptr noundef nonnull align 8 dereferenceable(32) %0, ptr noundef nonnull align 8 dereferenceable(23096) %1, ptr noundef nonnull align 8 dereferenceable(32) %2, i1 noundef zeroext %3, i64 %4, i32 %5) unnamed_addr #1 align 2 {
  store i8 62, ptr %0, align 8
  %7 = load i8, ptr @_ZN5clang4Stmt17StatisticsEnabledE, align 1
  %8 = trunc i8 %7 to i1
  br i1 %8, label %9, label %_ZN5clang4ExprC2ENS_4Stmt9StmtClassENS_8QualTypeENS_13ExprValueKindENS_14ExprObjectKindE.exit

9:                                                ; preds = %6
  tail call void @_ZN5clang4Stmt12addStmtClassENS0_9StmtClassE(i32 noundef 62) #28
  br label %_ZN5clang4ExprC2ENS_4Stmt9StmtClassENS_8QualTypeENS_13ExprValueKindENS_14ExprObjectKindE.exit

_ZN5clang4ExprC2ENS_4Stmt9StmtClassENS_8QualTypeENS_13ExprValueKindENS_14ExprObjectKindE.exit: ; preds = %6, %9
  %10 = getelementptr inbounds nuw i8, ptr %0, i64 8
  %11 = getelementptr inbounds nuw i8, ptr %0, i64 1
  %12 = load i16, ptr %11, align 1
  %13 = and i16 %12, -1024
  store i16 %13, ptr %11, align 1
  store i64 %4, ptr %10, align 8
  %14 = getelementptr inbounds i8, ptr %0, i64 16
  store i64 0, ptr %14, align 8
  %15 = getelementptr inbounds i8, ptr %0, i64 24
  store i32 0, ptr %15, align 8
  %16 = getelementptr inbounds nuw i8, ptr %0, i64 28
  store i32 %5, ptr %16, align 4
  %17 = getelementptr inbounds nuw i8, ptr %2, i64 8
  %18 = load ptr, ptr %17, align 8
  %19 = tail call noundef i32 @_ZN4llvm11APFloatBase15SemanticsToEnumERKNS_12fltSemanticsE(ptr noundef nonnull align 1 %18) #28
  %20 = trunc i32 %19 to i24
  %21 = load i24, ptr %0, align 8
  %22 = shl i24 %20, 18
  %23 = and i24 %22, 8126464
  %24 = and i24 %21, 262143
  %25 = select i1 %3, i24 -8388608, i24 0
  %26 = or disjoint i24 %24, %25
  %27 = or disjoint i24 %26, %23
  store i24 %27, ptr %0, align 8
  tail call void @_ZN5clang14APFloatStorage8setValueERKNS_10ASTContextERKN4llvm7APFloatE(ptr noundef nonnull align 8 dereferenceable(12) %14, ptr noundef nonnull align 8 dereferenceable(23096) %1, ptr noundef nonnull align 8 dereferenceable(32) %2)
  %28 = load i16, ptr %11, align 1
  %29 = and i16 %28, -993
  store i16 %29, ptr %11, align 1
  ret void
}